target datalayout = "e-m:e-p270:32:32-p271:32:32-p272:64:64-i64:64-i128:128-f80:128-n8:16:32:64-S128"
target triple = "x86_64-pc-linux-gnu"

%struct.CVodeMemRec = type { ptr, double, ptr, ptr, i32, i32, double, double, ptr, i32, i32, ptr, ptr, i32, [13 x ptr], ptr, ptr, ptr, ptr, ptr, ptr, ptr, ptr, ptr, i32, i32, double, i32, i32, i32, i32, i32, double, double, double, double, double, double, double, double, [14 x double], [6 x double], [13 x double], double, double, double, double, double, double, double, i32, double, i32, i64, i32, i32, i32, double, double, double, double, double, double, double, double, double, double, double, double, i64, i32, i64, i64, i64, i64, i64, i64, i64, i32, double, double, double, i64, i64, i64, i64, ptr, i32, ptr, i32, ptr, ptr, ptr, ptr, ptr, i64, double, i32, i64, double, double, double, i32, double, i32, i32, i32, i32, i32, ptr, i64, i32, [6 x [4 x double]], i32, i64, ptr, i32, ptr, ptr, double, double, double, ptr, ptr, ptr, double, double, i32, i32, i64, ptr, i32, ptr, i32, i32, [13 x double], [13 x double], [13 x ptr], i32 }
%struct.CVBBDPrecDataRec = type { i64, i64, i64, i64, double, ptr, ptr, ptr, ptr, ptr, ptr, ptr, ptr, ptr, ptr, i64, i64, i64, i64, ptr }
%struct.CVLsMemRec = type { i32, i32, i32, ptr, ptr, i32, double, i32, double, double, ptr, ptr, ptr, ptr, ptr, ptr, ptr, i64, i64, i64, i64, i64, i64, i64, i64, i64, i64, double, ptr, ptr, ptr, ptr, i32, ptr, ptr, ptr, ptr, i32, ptr, ptr, i32 }

@.str = private unnamed_addr constant [120 x i8] c"generated/home/dtcxzyw/WorkSpace/Projects/compilers/llvm-opt-benchmark/bench/sundials/sundials/src/cvode/cvode_bbdpre.c\00", align 1
@.str.1 = private unnamed_addr constant [27 x i8] c"Integrator memory is NULL.\00", align 1
@.str.2 = private unnamed_addr constant [80 x i8] c"Linear solver memory is NULL. One of the SPILS linear solvers must be attached.\00", align 1
@.str.6 = private unnamed_addr constant [64 x i8] c"BBD peconditioner memory is NULL. CVBBDPrecInit must be called.\00", align 1
@__func__.CVBBDPrecGetNumGfnEvals = private unnamed_addr constant [24 x i8] c"CVBBDPrecGetNumGfnEvals\00", align 1

; Function Attrs: nounwind uwtable
define i32 @CVBBDPrecGetNumGfnEvals(ptr noundef %0, ptr noundef %1) #0 {
  %3 = alloca i32, align 4
  %4 = alloca ptr, align 8
  %5 = alloca ptr, align 8
  %6 = alloca ptr, align 8
  %7 = alloca ptr, align 8
  %8 = alloca ptr, align 8
  %9 = alloca i32, align 4
  store ptr %0, ptr %4, align 8, !tbaa !3
  store ptr %1, ptr %5, align 8, !tbaa !74
  call void @llvm.lifetime.start.p0(i64 8, ptr %6) #6
  call void @llvm.lifetime.start.p0(i64 8, ptr %7) #6
  call void @llvm.lifetime.start.p0(i64 8, ptr %8) #6
  %10 = load ptr, ptr %4, align 8, !tbaa !3
  %11 = icmp eq ptr %10, null
  br i1 %11, label %12, label %13

12:                                               ; preds = %2
  call void (ptr, i32, i32, ptr, ptr, ptr, ...) @cvProcessError(ptr noundef null, i32 noundef -1, i32 noundef 397, ptr noundef @__func__.CVBBDPrecGetNumGfnEvals, ptr noundef @.str, ptr noundef @.str.1)
  store i32 -1, ptr %3, align 4
  store i32 1, ptr %9, align 4
  br label %39

13:                                               ; preds = %2
  %14 = load ptr, ptr %4, align 8, !tbaa !3
  store ptr %14, ptr %6, align 8, !tbaa !11
  %15 = load ptr, ptr %6, align 8, !tbaa !11
  %16 = getelementptr inbounds nuw %struct.CVodeMemRec, ptr %15, i32 0, i32 94
  %17 = load ptr, ptr %16, align 8, !tbaa !13
  %18 = icmp eq ptr %17, null
  br i1 %18, label %19, label %21

19:                                               ; preds = %13
  %20 = load ptr, ptr %6, align 8, !tbaa !11
  call void (ptr, i32, i32, ptr, ptr, ptr, ...) @cvProcessError(ptr noundef %20, i32 noundef -2, i32 noundef 405, ptr noundef @__func__.CVBBDPrecGetNumGfnEvals, ptr noundef @.str, ptr noundef @.str.2)
  store i32 -2, ptr %3, align 4
  store i32 1, ptr %9, align 4
  br label %39

21:                                               ; preds = %13
  %22 = load ptr, ptr %6, align 8, !tbaa !11
  %23 = getelementptr inbounds nuw %struct.CVodeMemRec, ptr %22, i32 0, i32 94
  %24 = load ptr, ptr %23, align 8, !tbaa !13
  store ptr %24, ptr %7, align 8, !tbaa !22
  %25 = load ptr, ptr %7, align 8, !tbaa !22
  %26 = getelementptr inbounds nuw %struct.CVLsMemRec, ptr %25, i32 0, i32 31
  %27 = load ptr, ptr %26, align 8, !tbaa !71
  %28 = icmp eq ptr %27, null
  br i1 %28, label %29, label %31

29:                                               ; preds = %21
  %30 = load ptr, ptr %6, align 8, !tbaa !11
  call void (ptr, i32, i32, ptr, ptr, ptr, ...) @cvProcessError(ptr noundef %30, i32 noundef -5, i32 noundef 413, ptr noundef @__func__.CVBBDPrecGetNumGfnEvals, ptr noundef @.str, ptr noundef @.str.6)
  store i32 -5, ptr %3, align 4
  store i32 1, ptr %9, align 4
  br label %39

31:                                               ; preds = %21
  %32 = load ptr, ptr %7, align 8, !tbaa !22
  %33 = getelementptr inbounds nuw %struct.CVLsMemRec, ptr %32, i32 0, i32 31
  %34 = load ptr, ptr %33, align 8, !tbaa !71
  store ptr %34, ptr %8, align 8, !tbaa !30
  %35 = load ptr, ptr %8, align 8, !tbaa !30
  %36 = getelementptr inbounds nuw %struct.CVBBDPrecDataRec, ptr %35, i32 0, i32 18
  %37 = load i64, ptr %36, align 8, !tbaa !68
  %38 = load ptr, ptr %5, align 8, !tbaa !74
  store i64 %37, ptr %38, align 8, !tbaa !7
  store i32 0, ptr %3, align 4
  store i32 1, ptr %9, align 4
  br label %39

39:                                               ; preds = %31, %29, %19, %12
  call void @llvm.lifetime.end.p0(i64 8, ptr %8) #6
  call void @llvm.lifetime.end.p0(i64 8, ptr %7) #6
  call void @llvm.lifetime.end.p0(i64 8, ptr %6) #6
  %40 = load i32, ptr %3, align 4
  ret i32 %40
}